target datalayout = "e-m:e-p270:32:32-p271:32:32-p272:64:64-i64:64-i128:128-f80:128-n8:16:32:64-S128"
target triple = "x86_64-pc-linux-gnu"

%struct._dfilter_loc = type { i64, i64 }

@.str.22 = private unnamed_addr constant [3 x i8] c"%s\00", align 1
@.str.23 = private unnamed_addr constant [17 x i8] c"Division by zero\00", align 1

; Function Attrs: null_pointer_is_valid sspstrong uwtable
define internal void @do_modulo(ptr noundef %0, ptr noundef %1, ptr noundef %2, ptr noundef %3) #0 {
  %5 = alloca ptr, align 8
  %6 = alloca ptr, align 8
  %7 = alloca ptr, align 8
  %8 = alloca ptr, align 8
  %9 = alloca %struct._dfilter_loc, align 8
  %10 = alloca ptr, align 8
  %11 = alloca ptr, align 8
  %12 = alloca %struct._dfilter_loc, align 8
  store ptr %0, ptr %5, align 8
  store ptr %1, ptr %6, align 8
  store ptr %2, ptr %7, align 8
  store ptr %3, ptr %8, align 8
  %13 = load ptr, ptr %8, align 8
  %14 = call ptr @stnode_data(ptr noundef %13)
  %15 = call i32 @fvalue_is_zero(ptr noundef %14)
  %16 = icmp ne i32 %15, 0
  br i1 %16, label %17, label %33

17:                                               ; preds = %4
  br label %18

18:                                               ; preds = %17
  br label %19

19:                                               ; preds = %18
  br label %20

20:                                               ; preds = %19
  %21 = load ptr, ptr %5, align 8
  %22 = load ptr, ptr %6, align 8
  %23 = call { i64, i64 } @stnode_location(ptr noundef %22)
  %24 = getelementptr inbounds nuw { i64, i64 }, ptr %9, i32 0, i32 0
  %25 = extractvalue { i64, i64 } %23, 0
  store i64 %25, ptr %24, align 8
  %26 = getelementptr inbounds nuw { i64, i64 }, ptr %9, i32 0, i32 1
  %27 = extractvalue { i64, i64 } %23, 1
  store i64 %27, ptr %26, align 8
  %28 = getelementptr inbounds nuw { i64, i64 }, ptr %9, i32 0, i32 0
  %29 = load i64, ptr %28, align 8
  %30 = getelementptr inbounds nuw { i64, i64 }, ptr %9, i32 0, i32 1
  %31 = load i64, ptr %30, align 8
  call void (ptr, i32, i64, i64, ptr, ...) @dfilter_fail_throw(ptr noundef %21, i32 noundef -1, i64 %29, i64 %31, ptr noundef @.str.23) #7
  unreachable

32:                                               ; No predecessors!
  br label %33

33:                                               ; preds = %32, %4
  call void @llvm.lifetime.start.p0(i64 8, ptr %10) #8
  call void @llvm.lifetime.start.p0(i64 8, ptr %11) #8
  %34 = load ptr, ptr %7, align 8
  %35 = call ptr @stnode_data(ptr noundef %34)
  %36 = load ptr, ptr %8, align 8
  %37 = call ptr @stnode_data(ptr noundef %36)
  %38 = call ptr @fvalue_modulo(ptr noundef %35, ptr noundef %37, ptr noundef %10)
  store ptr %38, ptr %11, align 8
  %39 = load ptr, ptr %11, align 8
  %40 = icmp eq ptr %39, null
  br i1 %40, label %41, label %61

41:                                               ; preds = %33
  br label %42

42:                                               ; preds = %41
  br label %43

43:                                               ; preds = %42
  br label %44

44:                                               ; preds = %43
  br label %45

45:                                               ; preds = %44
  %46 = load ptr, ptr %5, align 8
  %47 = load ptr, ptr %6, align 8
  %48 = call { i64, i64 } @stnode_location(ptr noundef %47)
  %49 = getelementptr inbounds nuw { i64, i64 }, ptr %12, i32 0, i32 0
  %50 = extractvalue { i64, i64 } %48, 0
  store i64 %50, ptr %49, align 8
  %51 = getelementptr inbounds nuw { i64, i64 }, ptr %12, i32 0, i32 1
  %52 = extractvalue { i64, i64 } %48, 1
  store i64 %52, ptr %51, align 8
  %53 = load ptr, ptr %10, align 8
  %54 = getelementptr inbounds nuw { i64, i64 }, ptr %12, i32 0, i32 0
  %55 = load i64, ptr %54, align 8
  %56 = getelementptr inbounds nuw { i64, i64 }, ptr %12, i32 0, i32 1
  %57 = load i64, ptr %56, align 8
  call void (ptr, i32, i64, i64, ptr, ...) @dfilter_fail(ptr noundef %46, i32 noundef -1, i64 %55, i64 %57, ptr noundef @.str.22, ptr noundef %53)
  %58 = load ptr, ptr %10, align 8
  call void @g_free(ptr noundef %58)
  call void @except_throw(i64 noundef 1, i64 noundef 5, ptr noundef null) #7
  unreachable

59:                                               ; No predecessors!
  br label %60

60:                                               ; preds = %59
  br label %61

61:                                               ; preds = %60, %33
  %62 = load ptr, ptr %6, align 8
  %63 = load ptr, ptr %11, align 8
  call void @stnode_replace(ptr noundef %62, i32 noundef 9, ptr noundef %63)
  call void @llvm.lifetime.end.p0(i64 8, ptr %11) #8
  call void @llvm.lifetime.end.p0(i64 8, ptr %10) #8
  ret void
}