; Function Attrs: null_pointer_is_valid sspstrong uwtable
define internal void @do_modulo(ptr noundef %0, ptr noundef %1, ptr noundef %2, ptr noundef %3) unnamed_addr #0 {
  %5 = alloca ptr, align 8
  %6 = tail call ptr @stnode_data(ptr noundef %3)
  %7 = tail call i32 @fvalue_is_zero(ptr noundef %6)
  %.not = icmp eq i32 %7, 0
  br i1 %.not, label %12, label %8

8:                                                ; preds = %4
  %9 = tail call { i64, i64 } @stnode_location(ptr noundef %1)
  %10 = extractvalue { i64, i64 } %9, 0
  %11 = extractvalue { i64, i64 } %9, 1
  tail call void (ptr, i32, i64, i64, ptr, ...) @dfilter_fail_throw(ptr noundef %0, i32 noundef -1, i64 %10, i64 %11, ptr noundef nonnull @.str.23) #7
  unreachable

12:                                               ; preds = %4
  call void @llvm.lifetime.start.p0(i64 8, ptr nonnull %5) #8
  %13 = tail call ptr @stnode_data(ptr noundef %2)
  %14 = tail call ptr @stnode_data(ptr noundef %3)
  %15 = call ptr @fvalue_modulo(ptr noundef %13, ptr noundef %14, ptr noundef nonnull %5)
  %16 = icmp eq ptr %15, null
  br i1 %16, label %17, label %23

17:                                               ; preds = %12
  %18 = call { i64, i64 } @stnode_location(ptr noundef %1)
  %19 = extractvalue { i64, i64 } %18, 0
  %20 = extractvalue { i64, i64 } %18, 1
  %21 = load ptr, ptr %5, align 8
  call void (ptr, i32, i64, i64, ptr, ...) @dfilter_fail(ptr noundef %0, i32 noundef -1, i64 %19, i64 %20, ptr noundef nonnull @.str.22, ptr noundef %21)
  %22 = load ptr, ptr %5, align 8
  call void @g_free(ptr noundef %22)
  call void @except_throw(i64 noundef 1, i64 noundef 5, ptr noundef null) #7
  unreachable

23:                                               ; preds = %12
  call void @stnode_replace(ptr noundef %1, i32 noundef 9, ptr noundef nonnull %15)
  call void @llvm.lifetime.end.p0(i64 8, ptr nonnull %5) #8
  ret void
}